target datalayout = "e-m:e-p270:32:32-p271:32:32-p272:64:64-i64:64-i128:128-f80:128-n8:16:32:64-S128"
target triple = "x86_64-pc-linux-gnu"

%struct.lean_object = type { i32, i32 }

; Function Attrs: alwaysinline nounwind uwtable
define internal void @lean_dec_ref(ptr noundef %0) #1 {
  %2 = alloca ptr, align 8
  store ptr %0, ptr %2, align 8, !tbaa !8
  %3 = load ptr, ptr %2, align 8, !tbaa !8
  %4 = getelementptr inbounds nuw %struct.lean_object, ptr %3, i32 0, i32 0
  %5 = load i32, ptr %4, align 4, !tbaa !15
  %6 = icmp sgt i32 %5, 1
  %7 = zext i1 %6 to i32
  %8 = sext i32 %7 to i64
  %9 = call i64 @llvm.expect.i64(i64 %8, i64 1)
  %10 = icmp ne i64 %9, 0
  br i1 %10, label %11, label %16

11:                                               ; preds = %1
  %12 = load ptr, ptr %2, align 8, !tbaa !8
  %13 = getelementptr inbounds nuw %struct.lean_object, ptr %12, i32 0, i32 0
  %14 = load i32, ptr %13, align 4, !tbaa !15
  %15 = add i32 %14, -1
  store i32 %15, ptr %13, align 4, !tbaa !15
  br label %24

16:                                               ; preds = %1
  %17 = load ptr, ptr %2, align 8, !tbaa !8
  %18 = getelementptr inbounds nuw %struct.lean_object, ptr %17, i32 0, i32 0
  %19 = load i32, ptr %18, align 4, !tbaa !15
  %20 = icmp ne i32 %19, 0
  br i1 %20, label %21, label %23

21:                                               ; preds = %16
  %22 = load ptr, ptr %2, align 8, !tbaa !8
  call void @lean_dec_ref_cold(ptr noundef %22)
  br label %23

23:                                               ; preds = %21, %16
  br label %24

24:                                               ; preds = %23, %11
  ret void
}

; Function Attrs: alwaysinline nounwind uwtable
define internal zeroext i1 @lean_is_scalar(ptr noundef %0) #1 {
  %2 = alloca ptr, align 8
  store ptr %0, ptr %2, align 8, !tbaa !8
  %3 = load ptr, ptr %2, align 8, !tbaa !8
  %4 = ptrtoint ptr %3 to i64
  %5 = and i64 %4, 1
  %6 = icmp eq i64 %5, 1
  ret i1 %6
}

; Function Attrs: inlinehint nounwind uwtable
define internal ptr @lean_box(i64 noundef %0) #0 {
  %2 = alloca i64, align 8
  store i64 %0, ptr %2, align 8, !tbaa !4
  %3 = load i64, ptr %2, align 8, !tbaa !4
  %4 = shl i64 %3, 1
  %5 = or i64 %4, 1
  %6 = inttoptr i64 %5 to ptr
  ret ptr %6
}

; Function Attrs: alwaysinline nounwind uwtable
define internal void @lean_dec(ptr noundef %0) #1 {
  %2 = alloca ptr, align 8
  store ptr %0, ptr %2, align 8, !tbaa !8
  %3 = load ptr, ptr %2, align 8, !tbaa !8
  %4 = call zeroext i1 @lean_is_scalar(ptr noundef %3)
  br i1 %4, label %7, label %5

5:                                                ; preds = %1
  %6 = load ptr, ptr %2, align 8, !tbaa !8
  call void @lean_dec_ref(ptr noundef %6)
  br label %7

7:                                                ; preds = %5, %1
  ret void
}

; Function Attrs: nounwind uwtable
define zeroext i8 @l___private_Lean_Elab_PreDefinition_PartialFixpoint_Eqns_0__Lean_Elab_PartialFixpoint_deltaLHSUntilFix___lambda__1(ptr noundef %0, ptr noundef %1, ptr noundef %2) #2 {
  %4 = alloca i8, align 1
  %5 = alloca ptr, align 8
  %6 = alloca ptr, align 8
  %7 = alloca ptr, align 8
  %8 = alloca i8, align 1
  %9 = alloca i8, align 1
  %10 = alloca i32, align 4
  %11 = alloca i8, align 1
  store ptr %0, ptr %5, align 8, !tbaa !8
  store ptr %1, ptr %6, align 8, !tbaa !8
  store ptr %2, ptr %7, align 8, !tbaa !8
  br label %12

12:                                               ; preds = %3
  call void @llvm.lifetime.start.p0(i64 1, ptr %8) #7
  %13 = load ptr, ptr %7, align 8, !tbaa !8
  %14 = load ptr, ptr %5, align 8, !tbaa !8
  %15 = call zeroext i8 @lean_name_eq(ptr noundef %13, ptr noundef %14)
  store i8 %15, ptr %8, align 1, !tbaa !14
  %16 = load i8, ptr %8, align 1, !tbaa !14
  %17 = zext i8 %16 to i32
  %18 = icmp eq i32 %17, 0
  br i1 %18, label %19, label %24

19:                                               ; preds = %12
  call void @llvm.lifetime.start.p0(i64 1, ptr %9) #7
  %20 = load ptr, ptr %7, align 8, !tbaa !8
  %21 = load ptr, ptr %6, align 8, !tbaa !8
  %22 = call zeroext i8 @lean_name_eq(ptr noundef %20, ptr noundef %21)
  store i8 %22, ptr %9, align 1, !tbaa !14
  %23 = load i8, ptr %9, align 1, !tbaa !14
  store i8 %23, ptr %4, align 1
  store i32 1, ptr %10, align 4
  call void @llvm.lifetime.end.p0(i64 1, ptr %9) #7
  br label %26

24:                                               ; preds = %12
  call void @llvm.lifetime.start.p0(i64 1, ptr %11) #7
  store i8 1, ptr %11, align 1, !tbaa !14
  %25 = load i8, ptr %11, align 1, !tbaa !14
  store i8 %25, ptr %4, align 1
  store i32 1, ptr %10, align 4
  call void @llvm.lifetime.end.p0(i64 1, ptr %11) #7
  br label %26

26:                                               ; preds = %24, %19
  call void @llvm.lifetime.end.p0(i64 1, ptr %8) #7
  %27 = load i8, ptr %4, align 1
  ret i8 %27
}

; Function Attrs: nounwind uwtable
define ptr @l___private_Lean_Elab_PreDefinition_PartialFixpoint_Eqns_0__Lean_Elab_PartialFixpoint_deltaLHSUntilFix___lambda__1___boxed(ptr noundef %0, ptr noundef %1, ptr noundef %2) #2 {
  %4 = alloca ptr, align 8
  %5 = alloca ptr, align 8
  %6 = alloca ptr, align 8
  %7 = alloca i8, align 1
  %8 = alloca ptr, align 8
  store ptr %0, ptr %4, align 8, !tbaa !8
  store ptr %1, ptr %5, align 8, !tbaa !8
  store ptr %2, ptr %6, align 8, !tbaa !8
  br label %9

9:                                                ; preds = %3
  call void @llvm.lifetime.start.p0(i64 1, ptr %7) #7
  call void @llvm.lifetime.start.p0(i64 8, ptr %8) #7
  %10 = load ptr, ptr %4, align 8, !tbaa !8
  %11 = load ptr, ptr %5, align 8, !tbaa !8
  %12 = load ptr, ptr %6, align 8, !tbaa !8
  %13 = call zeroext i8 @l___private_Lean_Elab_PreDefinition_PartialFixpoint_Eqns_0__Lean_Elab_PartialFixpoint_deltaLHSUntilFix___lambda__1(ptr noundef %10, ptr noundef %11, ptr noundef %12)
  store i8 %13, ptr %7, align 1, !tbaa !14
  %14 = load ptr, ptr %6, align 8, !tbaa !8
  call void @lean_dec(ptr noundef %14)
  %15 = load ptr, ptr %5, align 8, !tbaa !8
  call void @lean_dec(ptr noundef %15)
  %16 = load ptr, ptr %4, align 8, !tbaa !8
  call void @lean_dec(ptr noundef %16)
  %17 = load i8, ptr %7, align 1, !tbaa !14
  %18 = zext i8 %17 to i64
  %19 = call ptr @lean_box(i64 noundef %18)
  store ptr %19, ptr %8, align 8, !tbaa !8
  %20 = load ptr, ptr %8, align 8, !tbaa !8
  call void @llvm.lifetime.end.p0(i64 8, ptr %8) #7
  call void @llvm.lifetime.end.p0(i64 1, ptr %7) #7
  ret ptr %20
}