; Function Attrs: nounwind uwtable
define nonnull ptr @l___private_Lean_Elab_PreDefinition_PartialFixpoint_Eqns_0__Lean_Elab_PartialFixpoint_deltaLHSUntilFix___lambda__1___boxed(ptr noundef %0, ptr noundef %1, ptr noundef %2) #0 {
  %4 = tail call zeroext i8 @lean_name_eq(ptr noundef %2, ptr noundef %0) #5
  %5 = icmp eq i8 %4, 0
  br i1 %5, label %6, label %l___private_Lean_Elab_PreDefinition_PartialFixpoint_Eqns_0__Lean_Elab_PartialFixpoint_deltaLHSUntilFix___lambda__1.exit

6:                                                ; preds = %3
  %7 = tail call zeroext i8 @lean_name_eq(ptr noundef %2, ptr noundef %1) #5
  %8 = zext i8 %7 to i64
  %9 = shl nuw nsw i64 %8, 1
  %10 = or disjoint i64 %9, 1
  br label %l___private_Lean_Elab_PreDefinition_PartialFixpoint_Eqns_0__Lean_Elab_PartialFixpoint_deltaLHSUntilFix___lambda__1.exit

l___private_Lean_Elab_PreDefinition_PartialFixpoint_Eqns_0__Lean_Elab_PartialFixpoint_deltaLHSUntilFix___lambda__1.exit: ; preds = %3, %6
  %.0.i = phi i64 [ %10, %6 ], [ 3, %3 ]
  %11 = ptrtoint ptr %2 to i64
  %12 = and i64 %11, 1
  %.not = icmp eq i64 %12, 0
  br i1 %.not, label %13, label %lean_dec.exit8

13:                                               ; preds = %l___private_Lean_Elab_PreDefinition_PartialFixpoint_Eqns_0__Lean_Elab_PartialFixpoint_deltaLHSUntilFix___lambda__1.exit
  %14 = load i32, ptr %2, align 4, !tbaa !8
  %15 = icmp sgt i32 %14, 1
  br i1 %15, label %16, label %18, !prof !11

16:                                               ; preds = %13
  %17 = add nsw i32 %14, -1
  store i32 %17, ptr %2, align 4, !tbaa !8
  br label %lean_dec.exit8

18:                                               ; preds = %13
  %.not.i = icmp eq i32 %14, 0
  br i1 %.not.i, label %lean_dec.exit8, label %19

19:                                               ; preds = %18
  tail call void @lean_dec_ref_cold(ptr noundef nonnull %2) #5
  br label %lean_dec.exit8

lean_dec.exit8:                                   ; preds = %19, %18, %16, %l___private_Lean_Elab_PreDefinition_PartialFixpoint_Eqns_0__Lean_Elab_PartialFixpoint_deltaLHSUntilFix___lambda__1.exit
  %20 = ptrtoint ptr %1 to i64
  %21 = and i64 %20, 1
  %.not13 = icmp eq i64 %21, 0
  br i1 %.not13, label %22, label %lean_dec.exit7

22:                                               ; preds = %lean_dec.exit8
  %23 = load i32, ptr %1, align 4, !tbaa !8
  %24 = icmp sgt i32 %23, 1
  br i1 %24, label %25, label %27, !prof !11

25:                                               ; preds = %22
  %26 = add nsw i32 %23, -1
  store i32 %26, ptr %1, align 4, !tbaa !8
  br label %lean_dec.exit7

27:                                               ; preds = %22
  %.not.i9 = icmp eq i32 %23, 0
  br i1 %.not.i9, label %lean_dec.exit7, label %28

28:                                               ; preds = %27
  tail call void @lean_dec_ref_cold(ptr noundef nonnull %1) #5
  br label %lean_dec.exit7

lean_dec.exit7:                                   ; preds = %28, %27, %25, %lean_dec.exit8
  %29 = ptrtoint ptr %0 to i64
  %30 = and i64 %29, 1
  %.not14 = icmp eq i64 %30, 0
  br i1 %.not14, label %31, label %lean_dec.exit

31:                                               ; preds = %lean_dec.exit7
  %32 = load i32, ptr %0, align 4, !tbaa !8
  %33 = icmp sgt i32 %32, 1
  br i1 %33, label %34, label %36, !prof !11

34:                                               ; preds = %31
  %35 = add nsw i32 %32, -1
  store i32 %35, ptr %0, align 4, !tbaa !8
  br label %lean_dec.exit

36:                                               ; preds = %31
  %.not.i11 = icmp eq i32 %32, 0
  br i1 %.not.i11, label %lean_dec.exit, label %37

37:                                               ; preds = %36
  tail call void @lean_dec_ref_cold(ptr noundef nonnull %0) #5
  br label %lean_dec.exit

lean_dec.exit:                                    ; preds = %37, %36, %34, %lean_dec.exit7
  %38 = inttoptr i64 %.0.i to ptr
  ret ptr %38
}